; Function Attrs: nounwind uwtable
define ptr @l_Std_Time_Month_Ordinal_clipDay___boxed(ptr noundef %0, ptr noundef %1, ptr noundef %2) local_unnamed_addr #0 {
  %4 = ptrtoint ptr %0 to i64
  %5 = lshr i64 %4, 1
  %6 = trunc i64 %5 to i8
  %7 = and i64 %4, 1
  %.not = icmp eq i64 %7, 0
  br i1 %.not, label %8, label %lean_dec.exit8

8:                                                ; preds = %3
  %9 = load i32, ptr %0, align 4, !tbaa !5
  %10 = icmp sgt i32 %9, 1
  br i1 %10, label %11, label %13, !prof !10

11:                                               ; preds = %8
  %12 = add nsw i32 %9, -1
  store i32 %12, ptr %0, align 4, !tbaa !5
  br label %lean_dec.exit8

13:                                               ; preds = %8
  %.not.i = icmp eq i32 %9, 0
  br i1 %.not.i, label %lean_dec.exit8, label %14

14:                                               ; preds = %13
  tail call void @lean_dec_ref_cold(ptr noundef nonnull %0) #5
  br label %lean_dec.exit8

lean_dec.exit8:                                   ; preds = %14, %13, %11, %3
  %15 = tail call ptr @l_Std_Time_Month_Ordinal_clipDay(i8 noundef zeroext %6, ptr noundef %1, ptr noundef %2)
  %16 = ptrtoint ptr %2 to i64
  %17 = and i64 %16, 1
  %.not13 = icmp eq i64 %17, 0
  br i1 %.not13, label %18, label %lean_dec.exit7

18:                                               ; preds = %lean_dec.exit8
  %19 = load i32, ptr %2, align 4, !tbaa !5
  %20 = icmp sgt i32 %19, 1
  br i1 %20, label %21, label %23, !prof !10

21:                                               ; preds = %18
  %22 = add nsw i32 %19, -1
  store i32 %22, ptr %2, align 4, !tbaa !5
  br label %lean_dec.exit7

23:                                               ; preds = %18
  %.not.i9 = icmp eq i32 %19, 0
  br i1 %.not.i9, label %lean_dec.exit7, label %24

24:                                               ; preds = %23
  tail call void @lean_dec_ref_cold(ptr noundef nonnull %2) #5
  br label %lean_dec.exit7

lean_dec.exit7:                                   ; preds = %24, %23, %21, %lean_dec.exit8
  %25 = ptrtoint ptr %1 to i64
  %26 = and i64 %25, 1
  %.not14 = icmp eq i64 %26, 0
  br i1 %.not14, label %27, label %lean_dec.exit

27:                                               ; preds = %lean_dec.exit7
  %28 = load i32, ptr %1, align 4, !tbaa !5
  %29 = icmp sgt i32 %28, 1
  br i1 %29, label %30, label %32, !prof !10

30:                                               ; preds = %27
  %31 = add nsw i32 %28, -1
  store i32 %31, ptr %1, align 4, !tbaa !5
  br label %lean_dec.exit

32:                                               ; preds = %27
  %.not.i11 = icmp eq i32 %28, 0
  br i1 %.not.i11, label %lean_dec.exit, label %33

33:                                               ; preds = %32
  tail call void @lean_dec_ref_cold(ptr noundef nonnull %1) #5
  br label %lean_dec.exit

lean_dec.exit:                                    ; preds = %33, %32, %30, %lean_dec.exit7
  ret ptr %15
}